target datalayout = "e-m:e-p270:32:32-p271:32:32-p272:64:64-i64:64-i128:128-f80:128-n8:16:32:64-S128"
target triple = "x86_64-pc-linux-gnu"

@.str.112 = private unnamed_addr constant [4 x i8] c"off\00", align 1
@.str.113 = private unnamed_addr constant [3 x i8] c"on\00", align 1

; Function Attrs: nounwind uwtable
define internal ptr @bool_substitute_hook(ptr noundef %0) #0 {
  %2 = alloca ptr, align 8
  store ptr %0, ptr %2, align 8
  %3 = load ptr, ptr %2, align 8
  %4 = icmp eq ptr %3, null
  br i1 %4, label %5, label %7

5:                                                ; preds = %1
  %6 = call ptr @pg_strdup(ptr noundef @.str.112)
  store ptr %6, ptr %2, align 8
  br label %17

7:                                                ; preds = %1
  %8 = load ptr, ptr %2, align 8
  %9 = getelementptr inbounds i8, ptr %8, i64 0
  %10 = load i8, ptr %9, align 1
  %11 = sext i8 %10 to i32
  %12 = icmp eq i32 %11, 0
  br i1 %12, label %13, label %16

13:                                               ; preds = %7
  %14 = load ptr, ptr %2, align 8
  call void @pg_free(ptr noundef %14)
  %15 = call ptr @pg_strdup(ptr noundef @.str.113)
  store ptr %15, ptr %2, align 8
  br label %16

16:                                               ; preds = %13, %7
  br label %17

17:                                               ; preds = %16, %5
  %18 = load ptr, ptr %2, align 8
  ret ptr %18
}