; Function Attrs: nounwind uwtable
define internal ptr @bool_substitute_hook(ptr noundef %0) #0 {
  %2 = icmp eq ptr %0, null
  br i1 %2, label %.sink.split, label %3

3:                                                ; preds = %1
  %4 = load i8, ptr %0, align 1
  %5 = icmp eq i8 %4, 0
  br i1 %5, label %6, label %8

6:                                                ; preds = %3
  tail call void @pg_free(ptr noundef nonnull %0) #15
  br label %.sink.split

.sink.split:                                      ; preds = %1, %6
  %.str.113.sink = phi ptr [ @.str.113, %6 ], [ @.str.112, %1 ]
  %7 = tail call ptr @pg_strdup(ptr noundef nonnull %.str.113.sink) #15
  br label %8

8:                                                ; preds = %.sink.split, %3
  %.0 = phi ptr [ %0, %3 ], [ %7, %.sink.split ]
  ret ptr %.0
}